target datalayout = "e-m:e-p270:32:32-p271:32:32-p272:64:64-i64:64-i128:128-f80:128-n8:16:32:64-S128"
target triple = "x86_64-pc-linux-gnu"

; Function Attrs: mustprogress uwtable
define dso_local noundef zeroext i1 @_ZNK8cmTarget22StrictTargetComparisonclEPKS_S2_(ptr noundef nonnull align 1 dereferenceable(1) %0, ptr noundef %1, ptr noundef %2) #4 align 2 {
  %4 = alloca i1, align 1
  %5 = alloca ptr, align 8
  %6 = alloca ptr, align 8
  %7 = alloca ptr, align 8
  %8 = alloca i32, align 4
  store ptr %0, ptr %5, align 8
  store ptr %1, ptr %6, align 8
  store ptr %2, ptr %7, align 8
  %9 = load ptr, ptr %6, align 8
  %10 = call noundef nonnull align 8 dereferenceable(32) ptr @_ZNK8cmTarget7GetNameB5cxx11Ev(ptr noundef nonnull align 8 dereferenceable(8) %9)
  %11 = call noundef ptr @_ZNKSt7__cxx1112basic_stringIcSt11char_traitsIcESaIcEE5c_strEv(ptr noundef nonnull align 8 dereferenceable(32) %10) #3
  %12 = load ptr, ptr %7, align 8
  %13 = call noundef nonnull align 8 dereferenceable(32) ptr @_ZNK8cmTarget7GetNameB5cxx11Ev(ptr noundef nonnull align 8 dereferenceable(8) %12)
  %14 = call noundef ptr @_ZNKSt7__cxx1112basic_stringIcSt11char_traitsIcESaIcEE5c_strEv(ptr noundef nonnull align 8 dereferenceable(32) %13) #3
  %15 = call i32 @strcmp(ptr noundef %11, ptr noundef %14) #17
  store i32 %15, ptr %8, align 4
  %16 = load i32, ptr %8, align 4
  %17 = icmp eq i32 %16, 0
  br i1 %17, label %18, label %29

18:                                               ; preds = %3
  %19 = load ptr, ptr %6, align 8
  %20 = call noundef ptr @_ZNK8cmTarget11GetMakefileEv(ptr noundef nonnull align 8 dereferenceable(8) %19)
  %21 = call noundef nonnull align 8 dereferenceable(32) ptr @_ZNK10cmMakefile25GetCurrentBinaryDirectoryB5cxx11Ev(ptr noundef nonnull align 8 dereferenceable(3520) %20)
  %22 = call noundef ptr @_ZNKSt7__cxx1112basic_stringIcSt11char_traitsIcESaIcEE5c_strEv(ptr noundef nonnull align 8 dereferenceable(32) %21) #3
  %23 = load ptr, ptr %7, align 8
  %24 = call noundef ptr @_ZNK8cmTarget11GetMakefileEv(ptr noundef nonnull align 8 dereferenceable(8) %23)
  %25 = call noundef nonnull align 8 dereferenceable(32) ptr @_ZNK10cmMakefile25GetCurrentBinaryDirectoryB5cxx11Ev(ptr noundef nonnull align 8 dereferenceable(3520) %24)
  %26 = call noundef ptr @_ZNKSt7__cxx1112basic_stringIcSt11char_traitsIcESaIcEE5c_strEv(ptr noundef nonnull align 8 dereferenceable(32) %25) #3
  %27 = call i32 @strcmp(ptr noundef %22, ptr noundef %26) #17
  %28 = icmp slt i32 %27, 0
  store i1 %28, ptr %4, align 1
  br label %32

29:                                               ; preds = %3
  %30 = load i32, ptr %8, align 4
  %31 = icmp slt i32 %30, 0
  store i1 %31, ptr %4, align 1
  br label %32

32:                                               ; preds = %29, %18
  %33 = load i1, ptr %4, align 1
  ret i1 %33
}