; Function Attrs: mustprogress uwtable
define dso_local noundef zeroext i1 @_ZNK8cmTarget22StrictTargetComparisonclEPKS_S2_(ptr nocapture noundef nonnull readnone align 1 dereferenceable(1) %0, ptr noundef nonnull %1, ptr noundef %2) local_unnamed_addr #3 align 2 {
  %4 = tail call noundef nonnull align 8 dereferenceable(32) ptr @_ZNK8cmTarget7GetNameB5cxx11Ev(ptr noundef nonnull align 8 dereferenceable(8) %1)
  %5 = tail call noundef ptr @_ZNKSt7__cxx1112basic_stringIcSt11char_traitsIcESaIcEE5c_strEv(ptr noundef nonnull align 8 dereferenceable(32) %4) #23
  %6 = tail call noundef nonnull align 8 dereferenceable(32) ptr @_ZNK8cmTarget7GetNameB5cxx11Ev(ptr noundef nonnull align 8 dereferenceable(8) %2)
  %7 = tail call noundef ptr @_ZNKSt7__cxx1112basic_stringIcSt11char_traitsIcESaIcEE5c_strEv(ptr noundef nonnull align 8 dereferenceable(32) %6) #23
  %8 = tail call i32 @strcmp(ptr noundef nonnull dereferenceable(1) %5, ptr noundef nonnull dereferenceable(1) %7) #24
  %9 = icmp eq i32 %8, 0
  br i1 %9, label %10, label %18

10:                                               ; preds = %3
  %11 = tail call noundef ptr @_ZNK8cmTarget11GetMakefileEv(ptr noundef nonnull align 8 dereferenceable(8) %1)
  %12 = tail call noundef nonnull align 8 dereferenceable(32) ptr @_ZNK10cmMakefile25GetCurrentBinaryDirectoryB5cxx11Ev(ptr noundef nonnull align 8 dereferenceable(3520) %11)
  %13 = tail call noundef ptr @_ZNKSt7__cxx1112basic_stringIcSt11char_traitsIcESaIcEE5c_strEv(ptr noundef nonnull align 8 dereferenceable(32) %12) #23
  %14 = tail call noundef ptr @_ZNK8cmTarget11GetMakefileEv(ptr noundef nonnull align 8 dereferenceable(8) %2)
  %15 = tail call noundef nonnull align 8 dereferenceable(32) ptr @_ZNK10cmMakefile25GetCurrentBinaryDirectoryB5cxx11Ev(ptr noundef nonnull align 8 dereferenceable(3520) %14)
  %16 = tail call noundef ptr @_ZNKSt7__cxx1112basic_stringIcSt11char_traitsIcESaIcEE5c_strEv(ptr noundef nonnull align 8 dereferenceable(32) %15) #23
  %17 = tail call i32 @strcmp(ptr noundef nonnull dereferenceable(1) %13, ptr noundef nonnull dereferenceable(1) %16) #24
  br label %18

18:                                               ; preds = %3, %10
  %.0.in = phi i32 [ %17, %10 ], [ %8, %3 ]
  %.0 = icmp slt i32 %.0.in, 0
  ret i1 %.0
}